; Function Attrs: mustprogress uwtable
define hidden noundef ptr @_Z15mk_uflra_tacticR11ast_managerRK10params_ref(ptr noundef nonnull align 8 dereferenceable(976) %0, ptr noundef nonnull align 8 dereferenceable(8) %1) local_unnamed_addr #3 personality ptr @__gxx_personality_v0 {
  %3 = alloca %class.params_ref, align 8
  %4 = tail call fastcc noundef ptr @_ZL21mk_quant_preprocessorR11ast_managerb(ptr noundef nonnull align 8 dereferenceable(976) %0, i1 noundef zeroext false)
  call void @llvm.lifetime.start.p0(i64 8, ptr nonnull %3) #22
  store ptr null, ptr %3, align 8, !tbaa !3
  %5 = invoke noundef ptr @_Z13mk_smt_tacticR11ast_managerRK10params_ref(ptr noundef nonnull align 8 dereferenceable(976) %0, ptr noundef nonnull align 8 dereferenceable(8) %3)
          to label %6 unwind label %12

6:                                                ; preds = %2
  %7 = invoke noundef ptr @_Z8and_thenP6tacticS0_(ptr noundef %4, ptr noundef %5)
          to label %8 unwind label %12

8:                                                ; preds = %6
  call void @_ZN10params_refD1Ev(ptr noundef nonnull align 8 dereferenceable(8) %3) #22
  call void @llvm.lifetime.end.p0(i64 8, ptr nonnull %3) #22
  %9 = load ptr, ptr %7, align 8, !tbaa !9
  %10 = getelementptr inbounds nuw i8, ptr %9, i64 104
  %11 = load ptr, ptr %10, align 8
  call void %11(ptr noundef nonnull align 8 dereferenceable(12) %7, ptr noundef nonnull align 8 dereferenceable(8) %1)
  ret ptr %7

12:                                               ; preds = %6, %2
  %13 = landingpad { ptr, i32 }
          cleanup
  call void @_ZN10params_refD1Ev(ptr noundef nonnull align 8 dereferenceable(8) %3) #22
  call void @llvm.lifetime.end.p0(i64 8, ptr nonnull %3) #22
  resume { ptr, i32 } %13
}